; ModuleID = '39/35.c'
source_filename = "39/35.c"
target datalayout = "e-m:e-p270:32:32-p271:32:32-p272:64:64-i64:64-f80:128-n8:16:32:64-S128"
target triple = "x86_64-pc-linux-gnu"

%struct.anon = type { [20 x i8], i32, i32, i8, i8, i32 }

@.str = private unnamed_addr constant [3 x i8] c"%d\00", align 1
@.str.1 = private unnamed_addr constant [18 x i8] c"%s %d %d %c %c %d\00", align 1
@.str.2 = private unnamed_addr constant [4 x i8] c"%s\0A\00", align 1
@.str.3 = private unnamed_addr constant [4 x i8] c"%d\0A\00", align 1

; Function Attrs: noinline nounwind uwtable
define dso_local void @main() #0 {
  %1 = alloca i32, align 4
  %2 = alloca i32, align 4
  %3 = alloca [100 x i32], align 16
  %4 = alloca i32, align 4
  %5 = alloca i32, align 4
  %6 = alloca [100 x %struct.anon], align 16
  store i32 0, i32* %4, align 4
  %7 = call i32 (i8*, ...) @__isoc99_scanf(i8* getelementptr inbounds ([3 x i8], [3 x i8]* @.str, i64 0, i64 0), i32* %1)
  store i32 0, i32* %2, align 4
  br label %8

8:                                                ; preds = %149, %0
  %9 = load i32, i32* %2, align 4
  %10 = load i32, i32* %1, align 4
  %11 = icmp slt i32 %9, %10
  br i1 %11, label %12, label %152

12:                                               ; preds = %8
  %13 = load i32, i32* %2, align 4
  %14 = sext i32 %13 to i64
  %15 = getelementptr inbounds [100 x %struct.anon], [100 x %struct.anon]* %6, i64 0, i64 %14
  %16 = getelementptr inbounds %struct.anon, %struct.anon* %15, i32 0, i32 0
  %17 = getelementptr inbounds [20 x i8], [20 x i8]* %16, i64 0, i64 0
  %18 = load i32, i32* %2, align 4
  %19 = sext i32 %18 to i64
  %20 = getelementptr inbounds [100 x %struct.anon], [100 x %struct.anon]* %6, i64 0, i64 %19
  %21 = getelementptr inbounds %struct.anon, %struct.anon* %20, i32 0, i32 1
  %22 = load i32, i32* %2, align 4
  %23 = sext i32 %22 to i64
  %24 = getelementptr inbounds [100 x %struct.anon], [100 x %struct.anon]* %6, i64 0, i64 %23
  %25 = getelementptr inbounds %struct.anon, %struct.anon* %24, i32 0, i32 2
  %26 = load i32, i32* %2, align 4
  %27 = sext i32 %26 to i64
  %28 = getelementptr inbounds [100 x %struct.anon], [100 x %struct.anon]* %6, i64 0, i64 %27
  %29 = getelementptr inbounds %struct.anon, %struct.anon* %28, i32 0, i32 3
  %30 = load i32, i32* %2, align 4
  %31 = sext i32 %30 to i64
  %32 = getelementptr inbounds [100 x %struct.anon], [100 x %struct.anon]* %6, i64 0, i64 %31
  %33 = getelementptr inbounds %struct.anon, %struct.anon* %32, i32 0, i32 4
  %34 = load i32, i32* %2, align 4
  %35 = sext i32 %34 to i64
  %36 = getelementptr inbounds [100 x %struct.anon], [100 x %struct.anon]* %6, i64 0, i64 %35
  %37 = getelementptr inbounds %struct.anon, %struct.anon* %36, i32 0, i32 5
  %38 = call i32 (i8*, ...) @__isoc99_scanf(i8* getelementptr inbounds ([18 x i8], [18 x i8]* @.str.1, i64 0, i64 0), i8* %17, i32* %21, i32* %25, i8* %29, i8* %33, i32* %37)
  %39 = load i32, i32* %2, align 4
  %40 = sext i32 %39 to i64
  %41 = getelementptr inbounds [100 x i32], [100 x i32]* %3, i64 0, i64 %40
  store i32 0, i32* %41, align 4
  %42 = load i32, i32* %2, align 4
  %43 = sext i32 %42 to i64
  %44 = getelementptr inbounds [100 x %struct.anon], [100 x %struct.anon]* %6, i64 0, i64 %43
  %45 = getelementptr inbounds %struct.anon, %struct.anon* %44, i32 0, i32 1
  %46 = load i32, i32* %45, align 4
  %47 = icmp sgt i32 %46, 80
  br i1 %47, label %48, label %61

48:                                               ; preds = %12
  %49 = load i32, i32* %2, align 4
  %50 = sext i32 %49 to i64
  %51 = getelementptr inbounds [100 x %struct.anon], [100 x %struct.anon]* %6, i64 0, i64 %50
  %52 = getelementptr inbounds %struct.anon, %struct.anon* %51, i32 0, i32 5
  %53 = load i32, i32* %52, align 4
  %54 = icmp sgt i32 %53, 0
  br i1 %54, label %55, label %61

55:                                               ; preds = %48
  %56 = load i32, i32* %2, align 4
  %57 = sext i32 %56 to i64
  %58 = getelementptr inbounds [100 x i32], [100 x i32]* %3, i64 0, i64 %57
  %59 = load i32, i32* %58, align 4
  %60 = add nsw i32 %59, 8000
  store i32 %60, i32* %58, align 4
  br label %61

61:                                               ; preds = %55, %48, %12
  %62 = load i32, i32* %2, align 4
  %63 = sext i32 %62 to i64
  %64 = getelementptr inbounds [100 x %struct.anon], [100 x %struct.anon]* %6, i64 0, i64 %63
  %65 = getelementptr inbounds %struct.anon, %struct.anon* %64, i32 0, i32 1
  %66 = load i32, i32* %65, align 4
  %67 = icmp sgt i32 %66, 85
  br i1 %67, label %68, label %81

68:                                               ; preds = %61
  %69 = load i32, i32* %2, align 4
  %70 = sext i32 %69 to i64
  %71 = getelementptr inbounds [100 x %struct.anon], [100 x %struct.anon]* %6, i64 0, i64 %70
  %72 = getelementptr inbounds %struct.anon, %struct.anon* %71, i32 0, i32 2
  %73 = load i32, i32* %72, align 4
  %74 = icmp sgt i32 %73, 80
  br i1 %74, label %75, label %81

75:                                               ; preds = %68
  %76 = load i32, i32* %2, align 4
  %77 = sext i32 %76 to i64
  %78 = getelementptr inbounds [100 x i32], [100 x i32]* %3, i64 0, i64 %77
  %79 = load i32, i32* %78, align 4
  %80 = add nsw i32 %79, 4000
  store i32 %80, i32* %78, align 4
  br label %81

81:                                               ; preds = %75, %68, %61
  %82 = load i32, i32* %2, align 4
  %83 = sext i32 %82 to i64
  %84 = getelementptr inbounds [100 x %struct.anon], [100 x %struct.anon]* %6, i64 0, i64 %83
  %85 = getelementptr inbounds %struct.anon, %struct.anon* %84, i32 0, i32 1
  %86 = load i32, i32* %85, align 4
  %87 = icmp sgt i32 %86, 90
  br i1 %87, label %88, label %94

88:                                               ; preds = %81
  %89 = load i32, i32* %2, align 4
  %90 = sext i32 %89 to i64
  %91 = getelementptr inbounds [100 x i32], [100 x i32]* %3, i64 0, i64 %90
  %92 = load i32, i32* %91, align 4
  %93 = add nsw i32 %92, 2000
  store i32 %93, i32* %91, align 4
  br label %94

94:                                               ; preds = %88, %81
  %95 = load i32, i32* %2, align 4
  %96 = sext i32 %95 to i64
  %97 = getelementptr inbounds [100 x %struct.anon], [100 x %struct.anon]* %6, i64 0, i64 %96
  %98 = getelementptr inbounds %struct.anon, %struct.anon* %97, i32 0, i32 1
  %99 = load i32, i32* %98, align 4
  %100 = icmp sgt i32 %99, 85
  br i1 %100, label %101, label %115

101:                                              ; preds = %94
  %102 = load i32, i32* %2, align 4
  %103 = sext i32 %102 to i64
  %104 = getelementptr inbounds [100 x %struct.anon], [100 x %struct.anon]* %6, i64 0, i64 %103
  %105 = getelementptr inbounds %struct.anon, %struct.anon* %104, i32 0, i32 4
  %106 = load i8, i8* %105, align 1
  %107 = sext i8 %106 to i32
  %108 = icmp eq i32 %107, 89
  br i1 %108, label %109, label %115

109:                                              ; preds = %101
  %110 = load i32, i32* %2, align 4
  %111 = sext i32 %110 to i64
  %112 = getelementptr inbounds [100 x i32], [100 x i32]* %3, i64 0, i64 %111
  %113 = load i32, i32* %112, align 4
  %114 = add nsw i32 %113, 1000
  store i32 %114, i32* %112, align 4
  br label %115

115:                                              ; preds = %109, %101, %94
  %116 = load i32, i32* %2, align 4
  %117 = sext i32 %116 to i64
  %118 = getelementptr inbounds [100 x %struct.anon], [100 x %struct.anon]* %6, i64 0, i64 %117
  %119 = getelementptr inbounds %struct.anon, %struct.anon* %118, i32 0, i32 2
  %120 = load i32, i32* %119, align 4
  %121 = icmp sgt i32 %120, 80
  br i1 %121, label %122, label %136

122:                                              ; preds = %115
  %123 = load i32, i32* %2, align 4
  %124 = sext i32 %123 to i64
  %125 = getelementptr inbounds [100 x %struct.anon], [100 x %struct.anon]* %6, i64 0, i64 %124
  %126 = getelementptr inbounds %struct.anon, %struct.anon* %125, i32 0, i32 3
  %127 = load i8, i8* %126, align 4
  %128 = sext i8 %127 to i32
  %129 = icmp eq i32 %128, 89
  br i1 %129, label %130, label %136

130:                                              ; preds = %122
  %131 = load i32, i32* %2, align 4
  %132 = sext i32 %131 to i64
  %133 = getelementptr inbounds [100 x i32], [100 x i32]* %3, i64 0, i64 %132
  %134 = load i32, i32* %133, align 4
  %135 = add nsw i32 %134, 850
  store i32 %135, i32* %133, align 4
  br label %142

136:                                              ; preds = %122, %115
  %137 = load i32, i32* %2, align 4
  %138 = sext i32 %137 to i64
  %139 = getelementptr inbounds [100 x i32], [100 x i32]* %3, i64 0, i64 %138
  %140 = load i32, i32* %139, align 4
  %141 = add nsw i32 %140, 0
  store i32 %141, i32* %139, align 4
  br label %142

142:                                              ; preds = %136, %130
  %143 = load i32, i32* %2, align 4
  %144 = sext i32 %143 to i64
  %145 = getelementptr inbounds [100 x i32], [100 x i32]* %3, i64 0, i64 %144
  %146 = load i32, i32* %145, align 4
  %147 = load i32, i32* %4, align 4
  %148 = add nsw i32 %147, %146
  store i32 %148, i32* %4, align 4
  br label %149

149:                                              ; preds = %142
  %150 = load i32, i32* %2, align 4
  %151 = add nsw i32 %150, 1
  store i32 %151, i32* %2, align 4
  br label %8

152:                                              ; preds = %8
  store i32 0, i32* %5, align 4
  store i32 0, i32* %2, align 4
  br label %153

153:                                              ; preds = %173, %152
  %154 = load i32, i32* %2, align 4
  %155 = load i32, i32* %1, align 4
  %156 = icmp slt i32 %154, %155
  br i1 %156, label %157, label %176

157:                                              ; preds = %153
  %158 = load i32, i32* %2, align 4
  %159 = sext i32 %158 to i64
  %160 = getelementptr inbounds [100 x i32], [100 x i32]* %3, i64 0, i64 %159
  %161 = load i32, i32* %160, align 4
  %162 = getelementptr inbounds [100 x i32], [100 x i32]* %3, i64 0, i64 0
  %163 = load i32, i32* %162, align 16
  %164 = icmp sgt i32 %161, %163
  br i1 %164, label %165, label %172

165:                                              ; preds = %157
  %166 = load i32, i32* %2, align 4
  store i32 %166, i32* %5, align 4
  %167 = load i32, i32* %2, align 4
  %168 = sext i32 %167 to i64
  %169 = getelementptr inbounds [100 x i32], [100 x i32]* %3, i64 0, i64 %168
  %170 = load i32, i32* %169, align 4
  %171 = getelementptr inbounds [100 x i32], [100 x i32]* %3, i64 0, i64 0
  store i32 %170, i32* %171, align 16
  br label %172

172:                                              ; preds = %165, %157
  br label %173

173:                                              ; preds = %172
  %174 = load i32, i32* %2, align 4
  %175 = add nsw i32 %174, 1
  store i32 %175, i32* %2, align 4
  br label %153

176:                                              ; preds = %153
  %177 = load i32, i32* %5, align 4
  %178 = sext i32 %177 to i64
  %179 = getelementptr inbounds [100 x %struct.anon], [100 x %struct.anon]* %6, i64 0, i64 %178
  %180 = getelementptr inbounds %struct.anon, %struct.anon* %179, i32 0, i32 0
  %181 = getelementptr inbounds [20 x i8], [20 x i8]* %180, i64 0, i64 0
  %182 = call i32 (i8*, ...) @printf(i8* getelementptr inbounds ([4 x i8], [4 x i8]* @.str.2, i64 0, i64 0), i8* %181)
  %183 = getelementptr inbounds [100 x i32], [100 x i32]* %3, i64 0, i64 0
  %184 = load i32, i32* %183, align 16
  %185 = call i32 (i8*, ...) @printf(i8* getelementptr inbounds ([4 x i8], [4 x i8]* @.str.3, i64 0, i64 0), i32 %184)
  %186 = load i32, i32* %4, align 4
  %187 = call i32 (i8*, ...) @printf(i8* getelementptr inbounds ([4 x i8], [4 x i8]* @.str.3, i64 0, i64 0), i32 %186)
  ret void
}

declare dso_local i32 @__isoc99_scanf(i8*, ...) #1

declare dso_local i32 @printf(i8*, ...) #1


!llvm.module.flags = !{!0}
!llvm.ident = !{!1}

!0 = !{i32 1, !"wchar_size", i32 4}
!1 = !{!"clang version 10.0.0-4ubuntu1 "}
